target datalayout = "e-m:e-p270:32:32-p271:32:32-p272:64:64-i64:64-i128:128-f80:128-n8:16:32:64-S128"
target triple = "x86_64-pc-linux-gnu"

%struct.ident_t = type { i32, i32, i32, i32, ptr }

@1 = private unnamed_addr constant %struct.ident_t { i32 0, i32 514, i32 0, i32 22, ptr @0 }, align 8
@2 = private unnamed_addr constant %struct.ident_t { i32 0, i32 66, i32 0, i32 22, ptr @0 }, align 8

; Function Attrs: alwaysinline norecurse nounwind uwtable
define internal void @agnostic_setDiagonalOpElems.omp_outlined(ptr noalias noundef %0, ptr noalias noundef %1, ptr noundef nonnull align 8 dereferenceable(8) %2, ptr noundef nonnull align 8 dereferenceable(8) %3, ptr noundef nonnull align 8 dereferenceable(8) %4, ptr noundef nonnull align 8 dereferenceable(8) %5, ptr noundef nonnull align 8 dereferenceable(8) %6, ptr noundef nonnull align 8 dereferenceable(8) %7, ptr noundef nonnull align 8 dereferenceable(8) %8) #2 {
  %10 = alloca ptr, align 8
  %11 = alloca ptr, align 8
  %12 = alloca ptr, align 8
  %13 = alloca ptr, align 8
  %14 = alloca ptr, align 8
  %15 = alloca ptr, align 8
  %16 = alloca ptr, align 8
  %17 = alloca ptr, align 8
  %18 = alloca ptr, align 8
  %19 = alloca i64, align 8
  %20 = alloca i64, align 8
  %21 = alloca i64, align 8
  %22 = alloca i64, align 8
  %23 = alloca i64, align 8
  %24 = alloca i64, align 8
  %25 = alloca i64, align 8
  %26 = alloca i64, align 8
  %27 = alloca i32, align 4
  %28 = alloca i64, align 8
  store ptr %0, ptr %10, align 8, !tbaa !19
  store ptr %1, ptr %11, align 8, !tbaa !19
  store ptr %2, ptr %12, align 8, !tbaa !21
  store ptr %3, ptr %13, align 8, !tbaa !21
  store ptr %4, ptr %14, align 8, !tbaa !33
  store ptr %5, ptr %15, align 8, !tbaa !33
  store ptr %6, ptr %16, align 8, !tbaa !21
  store ptr %7, ptr %17, align 8, !tbaa !33
  store ptr %8, ptr %18, align 8, !tbaa !33
  %29 = load ptr, ptr %12, align 8, !tbaa !21
  %30 = load ptr, ptr %13, align 8, !tbaa !21
  %31 = load ptr, ptr %14, align 8, !tbaa !33
  %32 = load ptr, ptr %15, align 8, !tbaa !33
  %33 = load ptr, ptr %16, align 8, !tbaa !21
  %34 = load ptr, ptr %17, align 8, !tbaa !33
  %35 = load ptr, ptr %18, align 8, !tbaa !33
  call void @llvm.lifetime.start.p0(i64 8, ptr %19) #3
  call void @llvm.lifetime.start.p0(i64 8, ptr %20) #3
  %36 = load i64, ptr %29, align 8, !tbaa !4
  store i64 %36, ptr %20, align 8, !tbaa !4
  call void @llvm.lifetime.start.p0(i64 8, ptr %21) #3
  %37 = load i64, ptr %30, align 8, !tbaa !4
  store i64 %37, ptr %21, align 8, !tbaa !4
  call void @llvm.lifetime.start.p0(i64 8, ptr %22) #3
  %38 = load i64, ptr %21, align 8, !tbaa !4
  %39 = load i64, ptr %20, align 8, !tbaa !4
  %40 = sub i64 %38, %39
  %41 = sub i64 %40, 1
  %42 = add i64 %41, 1
  %43 = udiv i64 %42, 1
  %44 = sub i64 %43, 1
  store i64 %44, ptr %22, align 8, !tbaa !4
  call void @llvm.lifetime.start.p0(i64 8, ptr %23) #3
  %45 = load i64, ptr %20, align 8, !tbaa !4
  store i64 %45, ptr %23, align 8, !tbaa !4
  call void @llvm.lifetime.end.p0(i64 8, ptr %23) #3
  %46 = load i64, ptr %20, align 8, !tbaa !4
  %47 = load i64, ptr %21, align 8, !tbaa !4
  %48 = icmp slt i64 %46, %47
  br i1 %48, label %49, label %100

49:                                               ; preds = %9
  call void @llvm.lifetime.start.p0(i64 8, ptr %24) #3
  store i64 0, ptr %24, align 8, !tbaa !4
  call void @llvm.lifetime.start.p0(i64 8, ptr %25) #3
  %50 = load i64, ptr %22, align 8, !tbaa !4
  store i64 %50, ptr %25, align 8, !tbaa !4
  call void @llvm.lifetime.start.p0(i64 8, ptr %26) #3
  store i64 1, ptr %26, align 8, !tbaa !4
  call void @llvm.lifetime.start.p0(i64 4, ptr %27) #3
  store i32 0, ptr %27, align 4, !tbaa !8
  call void @llvm.lifetime.start.p0(i64 8, ptr %28) #3
  %51 = load ptr, ptr %10, align 8
  %52 = load i32, ptr %51, align 4, !tbaa !8
  call void @__kmpc_for_static_init_8u(ptr @1, i32 %52, i32 34, ptr %27, ptr %24, ptr %25, ptr %26, i64 1, i64 1)
  %53 = load i64, ptr %25, align 8, !tbaa !4
  %54 = load i64, ptr %22, align 8, !tbaa !4
  %55 = icmp ugt i64 %53, %54
  br i1 %55, label %56, label %58

56:                                               ; preds = %49
  %57 = load i64, ptr %22, align 8, !tbaa !4
  br label %60

58:                                               ; preds = %49
  %59 = load i64, ptr %25, align 8, !tbaa !4
  br label %60

60:                                               ; preds = %58, %56
  %61 = phi i64 [ %57, %56 ], [ %59, %58 ]
  store i64 %61, ptr %25, align 8, !tbaa !4
  %62 = load i64, ptr %24, align 8, !tbaa !4
  store i64 %62, ptr %19, align 8, !tbaa !4
  br label %63

63:                                               ; preds = %93, %60
  %64 = load i64, ptr %19, align 8, !tbaa !4
  %65 = load i64, ptr %25, align 8, !tbaa !4
  %66 = add i64 %65, 1
  %67 = icmp ult i64 %64, %66
  br i1 %67, label %69, label %68

68:                                               ; preds = %63
  br label %96

69:                                               ; preds = %63
  %70 = load i64, ptr %20, align 8, !tbaa !4
  %71 = load i64, ptr %19, align 8, !tbaa !4
  %72 = mul i64 %71, 1
  %73 = add i64 %70, %72
  store i64 %73, ptr %28, align 8, !tbaa !4
  %74 = load ptr, ptr %32, align 8, !tbaa !25
  %75 = load i64, ptr %28, align 8, !tbaa !4
  %76 = load i64, ptr %33, align 8, !tbaa !4
  %77 = add nsw i64 %75, %76
  %78 = getelementptr inbounds double, ptr %74, i64 %77
  %79 = load double, ptr %78, align 8, !tbaa !10
  %80 = load ptr, ptr %31, align 8, !tbaa !25
  %81 = load i64, ptr %28, align 8, !tbaa !4
  %82 = getelementptr inbounds double, ptr %80, i64 %81
  store double %79, ptr %82, align 8, !tbaa !10
  %83 = load ptr, ptr %35, align 8, !tbaa !25
  %84 = load i64, ptr %28, align 8, !tbaa !4
  %85 = load i64, ptr %33, align 8, !tbaa !4
  %86 = add nsw i64 %84, %85
  %87 = getelementptr inbounds double, ptr %83, i64 %86
  %88 = load double, ptr %87, align 8, !tbaa !10
  %89 = load ptr, ptr %34, align 8, !tbaa !25
  %90 = load i64, ptr %28, align 8, !tbaa !4
  %91 = getelementptr inbounds double, ptr %89, i64 %90
  store double %88, ptr %91, align 8, !tbaa !10
  br label %92

92:                                               ; preds = %69
  br label %93

93:                                               ; preds = %92
  %94 = load i64, ptr %19, align 8, !tbaa !4
  %95 = add i64 %94, 1
  store i64 %95, ptr %19, align 8, !tbaa !4
  br label %63

96:                                               ; preds = %68
  br label %97

97:                                               ; preds = %96
  %98 = load ptr, ptr %10, align 8
  %99 = load i32, ptr %98, align 4, !tbaa !8
  call void @__kmpc_for_static_fini(ptr @1, i32 %99)
  call void @llvm.lifetime.end.p0(i64 8, ptr %28) #3
  call void @llvm.lifetime.end.p0(i64 4, ptr %27) #3
  call void @llvm.lifetime.end.p0(i64 8, ptr %26) #3
  call void @llvm.lifetime.end.p0(i64 8, ptr %25) #3
  call void @llvm.lifetime.end.p0(i64 8, ptr %24) #3
  br label %100

100:                                              ; preds = %97, %9
  call void @llvm.lifetime.end.p0(i64 8, ptr %22) #3
  call void @llvm.lifetime.end.p0(i64 8, ptr %21) #3
  call void @llvm.lifetime.end.p0(i64 8, ptr %20) #3
  call void @llvm.lifetime.end.p0(i64 8, ptr %19) #3
  %101 = load ptr, ptr %10, align 8
  %102 = load i32, ptr %101, align 4, !tbaa !8
  call void @__kmpc_barrier(ptr @2, i32 %102)
  ret void
}