; Function Attrs: alwaysinline norecurse nounwind uwtable
define internal void @agnostic_setDiagonalOpElems.omp_outlined(ptr noalias noundef readonly captures(none) %0, ptr noalias readnone captures(none) %1, ptr noundef nonnull readonly align 8 captures(none) dereferenceable(8) %2, ptr noundef nonnull readonly align 8 captures(none) dereferenceable(8) %3, ptr noundef nonnull readonly align 8 captures(none) dereferenceable(8) %4, ptr noundef nonnull readonly align 8 captures(none) dereferenceable(8) %5, ptr noundef nonnull readonly align 8 captures(none) dereferenceable(8) %6, ptr noundef nonnull readonly align 8 captures(none) dereferenceable(8) %7, ptr noundef nonnull readonly align 8 captures(none) dereferenceable(8) %8) #3 {
  %10 = alloca i64, align 8
  %11 = alloca i64, align 8
  %12 = alloca i64, align 8
  %13 = alloca i32, align 4
  %14 = load i64, ptr %2, align 8, !tbaa !16
  %15 = load i64, ptr %3, align 8, !tbaa !16
  %16 = icmp slt i64 %14, %15
  %.pre = load i32, ptr %0, align 4, !tbaa !18
  br i1 %16, label %17, label %37

17:                                               ; preds = %9
  %18 = xor i64 %14, -1
  %19 = add i64 %15, %18
  call void @llvm.lifetime.start.p0(i64 8, ptr nonnull %10) #4
  store i64 0, ptr %10, align 8, !tbaa !16
  call void @llvm.lifetime.start.p0(i64 8, ptr nonnull %11) #4
  store i64 %19, ptr %11, align 8, !tbaa !16
  call void @llvm.lifetime.start.p0(i64 8, ptr nonnull %12) #4
  store i64 1, ptr %12, align 8, !tbaa !16
  call void @llvm.lifetime.start.p0(i64 4, ptr nonnull %13) #4
  store i32 0, ptr %13, align 4, !tbaa !18
  call void @__kmpc_for_static_init_8u(ptr nonnull @1, i32 %.pre, i32 34, ptr nonnull %13, ptr nonnull %10, ptr nonnull %11, ptr nonnull %12, i64 1, i64 1)
  %20 = load i64, ptr %11, align 8, !tbaa !16
  %21 = call i64 @llvm.umin.i64(i64 %20, i64 %19)
  store i64 %21, ptr %11, align 8, !tbaa !16
  %22 = load i64, ptr %10, align 8, !tbaa !16
  %23 = add i64 %21, 1
  %24 = icmp ult i64 %22, %23
  br i1 %24, label %.lr.ph, label %._crit_edge

.lr.ph:                                           ; preds = %17
  %25 = load ptr, ptr %5, align 8, !tbaa !26
  %26 = load i64, ptr %6, align 8, !tbaa !16
  %invariant.gep = getelementptr double, ptr %25, i64 %26
  %27 = load ptr, ptr %4, align 8, !tbaa !26
  %28 = load ptr, ptr %8, align 8, !tbaa !26
  %invariant.gep27 = getelementptr double, ptr %28, i64 %26
  %29 = load ptr, ptr %7, align 8, !tbaa !26
  br label %30

30:                                               ; preds = %.lr.ph, %30
  %.026 = phi i64 [ %22, %.lr.ph ], [ %36, %30 ]
  %31 = add i64 %.026, %14
  %gep = getelementptr double, ptr %invariant.gep, i64 %31
  %32 = load double, ptr %gep, align 8, !tbaa !4
  %33 = getelementptr inbounds double, ptr %27, i64 %31
  store double %32, ptr %33, align 8, !tbaa !4
  %gep28 = getelementptr double, ptr %invariant.gep27, i64 %31
  %34 = load double, ptr %gep28, align 8, !tbaa !4
  %35 = getelementptr inbounds double, ptr %29, i64 %31
  store double %34, ptr %35, align 8, !tbaa !4
  %36 = add nuw i64 %.026, 1
  %exitcond.not = icmp eq i64 %.026, %21
  br i1 %exitcond.not, label %._crit_edge, label %30

._crit_edge:                                      ; preds = %30, %17
  call void @__kmpc_for_static_fini(ptr nonnull @1, i32 %.pre)
  call void @llvm.lifetime.end.p0(i64 4, ptr nonnull %13) #4
  call void @llvm.lifetime.end.p0(i64 8, ptr nonnull %12) #4
  call void @llvm.lifetime.end.p0(i64 8, ptr nonnull %11) #4
  call void @llvm.lifetime.end.p0(i64 8, ptr nonnull %10) #4
  br label %37

37:                                               ; preds = %._crit_edge, %9
  call void @__kmpc_barrier(ptr nonnull @2, i32 %.pre)
  ret void
}